target datalayout = "e-m:e-p270:32:32-p271:32:32-p272:64:64-i64:64-i128:128-f80:128-n8:16:32:64-S128"
target triple = "x86_64-unknown-linux-gnu"

%class.anon.472 = type { i8 }
%struct.grpc_closure = type { %union.anon.138, ptr, ptr, %union.anon.140 }
%union.anon.138 = type { ptr }
%union.anon.140 = type { i64 }
%struct.connected_channel_channel_data = type { ptr }
%struct.grpc_channel_element = type { ptr, ptr }
%struct.grpc_stream_refcount = type { %"class.grpc_core::RefCount", %struct.grpc_closure }
%"class.grpc_core::RefCount" = type { %"struct.std::atomic.162" }
%"struct.std::atomic.162" = type { %"struct.std::__atomic_base.163" }
%"struct.std::__atomic_base.163" = type { i64 }
%struct.grpc_channel_stack = type { %struct.grpc_stream_refcount, i64, i64, %"class.grpc_core::ManualConstructor.164", %"class.grpc_core::ManualConstructor.165" }
%"class.grpc_core::ManualConstructor.164" = type { [32 x i8] }
%"class.grpc_core::ManualConstructor.165" = type { [16 x i8] }

; Function Attrs: mustprogress uwtable
define internal void @_ZZN9grpc_core12_GLOBAL__N_119MakeConnectedFilterIXadL_ZNS0_21MakeServerCallPromiseEPNS_9TransportENS_8CallArgsESt8functionIFNS_12ArenaPromiseISt10unique_ptrI19grpc_metadata_batchNS_5Arena13PooledDeleterEEEES4_EEEEEE19grpc_channel_filtervENKUlP18grpc_channel_stackP20grpc_channel_elementE_clESH_SJ_(ptr noundef nonnull align 1 dereferenceable(1) %this, ptr noundef %channel_stack, ptr noundef %elem) #5 align 2 {
entry:
  %this.addr = alloca ptr, align 8
  %channel_stack.addr = alloca ptr, align 8
  %elem.addr = alloca ptr, align 8
  store ptr %this, ptr %this.addr, align 8
  store ptr %channel_stack, ptr %channel_stack.addr, align 8
  store ptr %elem, ptr %elem.addr, align 8
  %0 = load ptr, ptr %elem.addr, align 8
  %channel_data = getelementptr inbounds %struct.grpc_channel_element, ptr %0, i32 0, i32 1
  %1 = load ptr, ptr %channel_data, align 8
  %transport = getelementptr inbounds %struct.connected_channel_channel_data, ptr %1, i32 0, i32 0
  %2 = load ptr, ptr %transport, align 8
  %vtable = load ptr, ptr %2, align 8
  %vfn = getelementptr inbounds ptr, ptr %vtable, i64 3
  %3 = load ptr, ptr %vfn, align 8
  %call = call noundef ptr %3(ptr noundef nonnull align 8 dereferenceable(8) %2)
  %vtable2 = load ptr, ptr %call, align 8
  %vfn3 = getelementptr inbounds ptr, ptr %vtable2, i64 0
  %4 = load ptr, ptr %vfn3, align 8
  %call4 = call noundef i64 %4(ptr noundef nonnull align 8 dereferenceable(8) %call)
  %5 = load ptr, ptr %channel_stack.addr, align 8
  %call_stack_size = getelementptr inbounds %struct.grpc_channel_stack, ptr %5, i32 0, i32 2
  %6 = load i64, ptr %call_stack_size, align 8
  %add = add i64 %6, %call4
  store i64 %add, ptr %call_stack_size, align 8
  ret void
}

; Function Attrs: mustprogress uwtable
define internal void @_ZZN9grpc_core12_GLOBAL__N_119MakeConnectedFilterIXadL_ZNS0_21MakeServerCallPromiseEPNS_9TransportENS_8CallArgsESt8functionIFNS_12ArenaPromiseISt10unique_ptrI19grpc_metadata_batchNS_5Arena13PooledDeleterEEEES4_EEEEEE19grpc_channel_filtervENUlP18grpc_channel_stackP20grpc_channel_elementE_8__invokeESH_SJ_(ptr noundef %channel_stack, ptr noundef %elem) #5 align 2 {
entry:
  %channel_stack.addr = alloca ptr, align 8
  %elem.addr = alloca ptr, align 8
  %unused.capture = alloca %class.anon.472, align 1
  store ptr %channel_stack, ptr %channel_stack.addr, align 8
  store ptr %elem, ptr %elem.addr, align 8
  %0 = load ptr, ptr %channel_stack.addr, align 8
  %1 = load ptr, ptr %elem.addr, align 8
  call void @_ZZN9grpc_core12_GLOBAL__N_119MakeConnectedFilterIXadL_ZNS0_21MakeServerCallPromiseEPNS_9TransportENS_8CallArgsESt8functionIFNS_12ArenaPromiseISt10unique_ptrI19grpc_metadata_batchNS_5Arena13PooledDeleterEEEES4_EEEEEE19grpc_channel_filtervENKUlP18grpc_channel_stackP20grpc_channel_elementE_clESH_SJ_(ptr noundef nonnull align 1 dereferenceable(1) %unused.capture, ptr noundef %0, ptr noundef %1)
  ret void
}